target datalayout = "e-m:e-p270:32:32-p271:32:32-p272:64:64-i64:64-i128:128-f80:128-n8:16:32:64-S128"
target triple = "x86_64-unknown-linux-gnu"

%struct.tsd_s = type { i8, i8, i64, i64, i64, i64, i64, i64, i64, i64, i64, i64, i64, i64, ptr, i64, i64, i64, ptr, ptr, %struct.ticker_geom_s, i8, %struct.tsd_binshards_s, %struct.tsd_link_t, i8, %struct.peak_s, %struct.activity_callback_thunk_s, %struct.tcache_slow_s, %struct.rtree_ctx_s, %struct.atomic_u8_t, i64, i64, i64, i64, %struct.tcache_s, %struct.witness_tsd_s }
%struct.ticker_geom_s = type { i32, i32 }
%struct.tsd_binshards_s = type { [39 x i8] }
%struct.tsd_link_t = type { ptr, ptr }
%struct.peak_s = type { i64, i64 }
%struct.activity_callback_thunk_s = type { ptr, ptr }
%struct.tcache_slow_s = type { %struct.anon.3, %struct.cache_bin_array_descriptor_s, ptr, i32, [39 x i8], [39 x i8], [39 x i8], ptr, ptr }
%struct.anon.3 = type { ptr, ptr }
%struct.cache_bin_array_descriptor_s = type { %struct.anon.4, ptr }
%struct.anon.4 = type { ptr, ptr }
%struct.rtree_ctx_s = type { [16 x %struct.rtree_ctx_cache_elm_s], [8 x %struct.rtree_ctx_cache_elm_s] }
%struct.rtree_ctx_cache_elm_s = type { i64, ptr }
%struct.atomic_u8_t = type { i8 }
%struct.tcache_s = type { ptr, [76 x %struct.cache_bin_s] }
%struct.cache_bin_s = type { ptr, %struct.cache_bin_stats_s, i16, i16, i16 }
%struct.cache_bin_stats_s = type { i64 }
%struct.witness_tsd_s = type { %struct.witness_list_t, i8 }
%struct.witness_list_t = type { ptr }

@ncpus = external global i32, align 4
@opt_narenas = external global i32, align 4

; Function Attrs: nounwind uwtable
define internal i32 @thread_idle_ctl(ptr noundef %tsd, ptr noundef %mib, i64 noundef %miblen, ptr noundef %oldp, ptr noundef %oldlenp, ptr noundef %newp, i64 noundef %newlen) #0 {
entry:
  %tsd.addr.i20 = alloca ptr, align 8
  %tsd.addr.i.i = alloca ptr, align 8
  %tsd.addr.i19 = alloca ptr, align 8
  %state.i = alloca i8, align 1
  %tsd.addr.i17 = alloca ptr, align 8
  %retval.i = alloca i1, align 1
  %tsd.addr.i16 = alloca ptr, align 8
  %tsd.addr.i = alloca ptr, align 8
  %tsd.addr = alloca ptr, align 8
  %mib.addr = alloca ptr, align 8
  %miblen.addr = alloca i64, align 8
  %oldp.addr = alloca ptr, align 8
  %oldlenp.addr = alloca ptr, align 8
  %newp.addr = alloca ptr, align 8
  %newlen.addr = alloca i64, align 8
  %ret = alloca i32, align 4
  %arena = alloca ptr, align 8
  store ptr %tsd, ptr %tsd.addr, align 8
  store ptr %mib, ptr %mib.addr, align 8
  store i64 %miblen, ptr %miblen.addr, align 8
  store ptr %oldp, ptr %oldp.addr, align 8
  store ptr %oldlenp, ptr %oldlenp.addr, align 8
  store ptr %newp, ptr %newp.addr, align 8
  store i64 %newlen, ptr %newlen.addr, align 8
  br label %do.body

do.body:                                          ; preds = %entry
  %0 = load ptr, ptr %oldp.addr, align 8
  %cmp = icmp ne ptr %0, null
  br i1 %cmp, label %if.then, label %lor.lhs.false

lor.lhs.false:                                    ; preds = %do.body
  %1 = load ptr, ptr %oldlenp.addr, align 8
  %cmp1 = icmp ne ptr %1, null
  br i1 %cmp1, label %if.then, label %lor.lhs.false2

lor.lhs.false2:                                   ; preds = %lor.lhs.false
  %2 = load ptr, ptr %newp.addr, align 8
  %cmp3 = icmp ne ptr %2, null
  br i1 %cmp3, label %if.then, label %lor.lhs.false4

lor.lhs.false4:                                   ; preds = %lor.lhs.false2
  %3 = load i64, ptr %newlen.addr, align 8
  %cmp5 = icmp ne i64 %3, 0
  br i1 %cmp5, label %if.then, label %if.end

if.then:                                          ; preds = %lor.lhs.false4, %lor.lhs.false2, %lor.lhs.false, %do.body
  store i32 1, ptr %ret, align 4
  br label %label_return

if.end:                                           ; preds = %lor.lhs.false4
  br label %do.end

do.end:                                           ; preds = %if.end
  %4 = load ptr, ptr %tsd.addr, align 8
  store ptr %4, ptr %tsd.addr.i16, align 8
  %5 = load ptr, ptr %tsd.addr.i16, align 8
  store ptr %5, ptr %tsd.addr.i17, align 8
  %6 = load ptr, ptr %tsd.addr.i17, align 8
  store ptr %6, ptr %tsd.addr.i19, align 8
  %7 = load ptr, ptr %tsd.addr.i19, align 8
  store ptr %7, ptr %tsd.addr.i.i, align 8
  %8 = load ptr, ptr %tsd.addr.i.i, align 8
  %state.i.i = getelementptr inbounds %struct.tsd_s, ptr %8, i32 0, i32 29
  %9 = load i8, ptr %state.i.i, align 8
  store i8 %9, ptr %state.i, align 1
  %10 = load ptr, ptr %tsd.addr.i19, align 8
  store ptr %10, ptr %tsd.addr.i20, align 8
  %11 = load ptr, ptr %tsd.addr.i20, align 8
  %12 = load i8, ptr %11, align 1
  %tobool.i = trunc i8 %12 to i1
  br i1 %tobool.i, label %if.then.i, label %if.end.i

if.then.i:                                        ; preds = %do.end
  store i1 true, ptr %retval.i, align 1
  br label %tcache_available.exit

if.end.i:                                         ; preds = %do.end
  store i1 false, ptr %retval.i, align 1
  br label %tcache_available.exit

tcache_available.exit:                            ; preds = %if.end.i, %if.then.i
  %13 = load i1, ptr %retval.i, align 1
  br i1 %13, label %if.then6, label %if.end7

if.then6:                                         ; preds = %tcache_available.exit
  %14 = load ptr, ptr %tsd.addr, align 8
  call void @tcache_flush(ptr noundef %14)
  br label %if.end7

if.end7:                                          ; preds = %if.then6, %tcache_available.exit
  %15 = load i32, ptr @opt_narenas, align 4
  %16 = load i32, ptr @ncpus, align 4
  %mul = mul i32 %16, 2
  %cmp8 = icmp ugt i32 %15, %mul
  br i1 %cmp8, label %if.then9, label %if.end15

if.then9:                                         ; preds = %if.end7
  %17 = load ptr, ptr %tsd.addr, align 8
  %call10 = call ptr @arena_choose(ptr noundef %17, ptr noundef null)
  store ptr %call10, ptr %arena, align 8
  %18 = load ptr, ptr %arena, align 8
  %cmp11 = icmp ne ptr %18, null
  br i1 %cmp11, label %if.then12, label %if.end14

if.then12:                                        ; preds = %if.then9
  %19 = load ptr, ptr %tsd.addr, align 8
  store ptr %19, ptr %tsd.addr.i, align 8
  %20 = load ptr, ptr %tsd.addr.i, align 8
  %21 = load ptr, ptr %arena, align 8
  call void @arena_decay(ptr noundef %20, ptr noundef %21, i1 noundef zeroext false, i1 noundef zeroext true)
  br label %if.end14

if.end14:                                         ; preds = %if.then12, %if.then9
  br label %if.end15

if.end15:                                         ; preds = %if.end14, %if.end7
  store i32 0, ptr %ret, align 4
  br label %label_return

label_return:                                     ; preds = %if.end15, %if.then
  %22 = load i32, ptr %ret, align 4
  ret i32 %22
}