; Function Attrs: nounwind uwtable
define internal noundef i32 @thread_idle_ctl(ptr noundef %tsd, ptr nocapture readnone %mib, i64 %miblen, ptr noundef readnone %oldp, ptr noundef readnone %oldlenp, ptr noundef readnone %newp, i64 noundef %newlen) #0 {
entry:
  %cmp = icmp ne ptr %oldp, null
  %cmp1 = icmp ne ptr %oldlenp, null
  %or.cond = or i1 %cmp, %cmp1
  %cmp3 = icmp ne ptr %newp, null
  %or.cond1 = or i1 %or.cond, %cmp3
  %cmp5 = icmp ne i64 %newlen, 0
  %or.cond2 = or i1 %or.cond1, %cmp5
  br i1 %or.cond2, label %label_return, label %do.end

do.end:                                           ; preds = %entry
  %0 = load i8, ptr %tsd, align 1
  %1 = and i8 %0, 1
  %tobool.i.not.not = icmp eq i8 %1, 0
  br i1 %tobool.i.not.not, label %if.end7, label %if.then6

if.then6:                                         ; preds = %do.end
  tail call void @tcache_flush(ptr noundef nonnull %tsd) #14
  br label %if.end7

if.end7:                                          ; preds = %if.then6, %do.end
  %2 = load i32, ptr @opt_narenas, align 4
  %3 = load i32, ptr @ncpus, align 4
  %mul = shl i32 %3, 1
  %cmp8 = icmp ugt i32 %2, %mul
  br i1 %cmp8, label %if.then9, label %label_return

if.then9:                                         ; preds = %if.end7
  %call10 = tail call fastcc ptr @arena_choose(ptr noundef nonnull %tsd)
  %cmp11.not = icmp eq ptr %call10, null
  br i1 %cmp11.not, label %label_return, label %if.then12

if.then12:                                        ; preds = %if.then9
  tail call void @arena_decay(ptr noundef nonnull %tsd, ptr noundef nonnull %call10, i1 noundef zeroext false, i1 noundef zeroext true) #14
  br label %label_return

label_return:                                     ; preds = %if.end7, %if.then12, %if.then9, %entry
  %ret.0 = phi i32 [ 1, %entry ], [ 0, %if.then9 ], [ 0, %if.then12 ], [ 0, %if.end7 ]
  ret i32 %ret.0
}